(lp1
(lp2
I59
aI0
aI0
aI0
aa(lp3
I184
aI0
aI0
aI0
aa(lp4
I214
aI0
aI0
aI0
aa(lp5
I323
aI0
aI0
aI0
aa(lp6
I282
aI0
aI0
aI0
aa(lp7
I106
aI0
aI0
aI0
aa(lp8
I92
aI0
aI0
aI0
aa(lp9
I274
aI0
aI0
aI0
aa(lp10
I278
aI0
aI0
aI0
aa(lp11
I277
aI0
aI0
aI0
aa(lp12
I326
aI0
aI0
aI0
aa(lp13
I336
aI0
aI0
aI0
aa(lp14
I241
aI0
aI0
aI0
aa(lp15
I352
aI0
aI0
aI0
aa(lp16
I126
aI0
aI0
aI0
aa(lp17
I246
aI0
aI0
aI0
aa(lp18
I307
aI0
aI0
aI0
aa(lp19
I97
aI0
aI0
aI0
aa(lp20
I65
aI0
aI0
aI0
aa(lp21
I138
aI0
aI0
aI0
aa(lp22
I86
aI0
aI0
aI0
aa(lp23
I81
aI0
aI0
aI0
aa(lp24
I106
aI0
aI0
aI0
aa(lp25
I172
aI0
aI0
aI0
aa(lp26
I173
aI0
aI0
aI0
aa(lp27
I43
aI0
aI0
aI0
aa(lp28
I156
aI0
aI0
aI0
aa(lp29
I113
aI0
aI0
aI0
aa(lp30
I48
aI0
aI0
aI0
aa(lp31
I145
aI0
aI0
aI0
aa(lp32
I164
aI0
aI0
aI0
aa(lp33
I43
aI0
aI0
aI0
aa(lp34
I182
aI0
aI0
aI0
aa(lp35
I179
aI0
aI0
aI0
aa(lp36
I207
aI0
aI0
aI0
aa(lp37
I140
aI0
aI0
aI0
aa(lp38
I159
aI0
aI0
aI0
aa(lp39
I145
aI0
aI0
aI0
aa(lp40
I192
aI0
aI0
aI0
aa(lp41
I202
aI0
aI0
aI0
aa(lp42
I65
aI0
aI0
aI0
aa(lp43
I120
aI0
aI0
aI0
aa(lp44
I258
aI0
aI0
aI0
aa(lp45
I131
aI0
aI0
aI0
aa(lp46
I104
aI0
aI0
aI0
aa(lp47
I174
aI0
aI0
aI0
aa(lp48
I220
aI0
aI0
aI0
aa(lp49
I208
aI0
aI0
aI0
aa(lp50
I212
aI0
aI0
aI0
aa(lp51
I134
aI0
aI0
aI0
aa(lp52
I165
aI0
aI0
aI0
aa(lp53
I101
aI0
aI0
aI0
aa(lp54
I235
aI0
aI0
aI0
aa(lp55
I207
aI0
aI0
aI0
aa(lp56
I229
aI0
aI0
aI0
aa.